target datalayout = "e-m:e-p270:32:32-p271:32:32-p272:64:64-i64:64-i128:128-f80:128-n8:16:32:64-S128"
target triple = "x86_64-pc-linux-gnu"

%"struct.duckdb_zstd::buffer_s" = type { ptr, i64 }
%"struct.duckdb_zstd::range_t" = type { ptr, i64 }
%"struct.duckdb_zstd::ZSTD_customMem" = type { ptr, ptr, ptr }
%"struct.duckdb_zstd::ZSTDMT_CCtx_s" = type { ptr, ptr, ptr, ptr, ptr, %"struct.duckdb_zstd::ZSTD_CCtx_params_s", i64, i64, i32, %"struct.duckdb_zstd::inBuff_t", %"struct.duckdb_zstd::roundBuff_t", %"struct.duckdb_zstd::serialState_t", %"struct.duckdb_zstd::rsyncState_t", i32, i32, i32, i32, i32, i64, i64, i64, %"struct.duckdb_zstd::ZSTD_customMem", ptr, ptr, i8 }
%"struct.duckdb_zstd::ZSTD_CCtx_params_s" = type { i32, %"struct.duckdb_zstd::ZSTD_compressionParameters", %"struct.duckdb_zstd::ZSTD_frameParameters", i32, i32, i64, i32, i32, i32, i32, i64, i32, i32, %"struct.duckdb_zstd::ldmParams_t", i32, i32, i32, i32, i32, i32, i32, i32, %"struct.duckdb_zstd::ZSTD_customMem", i32, i32, ptr, ptr, i64, i32 }
%"struct.duckdb_zstd::ZSTD_compressionParameters" = type { i32, i32, i32, i32, i32, i32, i32 }
%"struct.duckdb_zstd::ZSTD_frameParameters" = type { i32, i32, i32 }
%"struct.duckdb_zstd::ldmParams_t" = type { i32, i32, i32, i32, i32, i32 }
%"struct.duckdb_zstd::inBuff_t" = type { %"struct.duckdb_zstd::range_t", %"struct.duckdb_zstd::buffer_s", i64 }
%"struct.duckdb_zstd::roundBuff_t" = type { ptr, i64, i64 }
%"struct.duckdb_zstd::serialState_t" = type { i32, i32, %"struct.duckdb_zstd::ZSTD_CCtx_params_s", %"struct.duckdb_zstd::ldmState_t", %"struct.duckdb_zstd::XXH64_state_s", i32, i32, i32, %"struct.duckdb_zstd::ZSTD_window_t" }
%"struct.duckdb_zstd::ldmState_t" = type { %"struct.duckdb_zstd::ZSTD_window_t", ptr, i32, ptr, [64 x i64], [64 x %"struct.duckdb_zstd::ldmMatchCandidate_t"] }
%"struct.duckdb_zstd::ldmMatchCandidate_t" = type { ptr, i32, i32, ptr }
%"struct.duckdb_zstd::XXH64_state_s" = type { i64, i64, i64, i64, i64, [4 x i64], i32, [2 x i32] }
%"struct.duckdb_zstd::ZSTD_window_t" = type { ptr, ptr, ptr, i32, i32, i32 }
%"struct.duckdb_zstd::rsyncState_t" = type { i64, i64, i64 }
%"struct.duckdb_zstd::ZSTDMT_bufferPool_s" = type { i32, i64, i32, i32, %"struct.duckdb_zstd::ZSTD_customMem", ptr }
%"struct.duckdb_zstd::ZSTDMT_CCtxPool" = type { i32, i32, i32, %"struct.duckdb_zstd::ZSTD_customMem", ptr }

; Function Attrs: mustprogress nounwind uwtable
define internal noundef i64 @_ZN11duckdb_zstdL21ZSTDMT_sizeof_seqPoolEPNS_19ZSTDMT_bufferPool_sE(ptr noundef %0) #0 {
  %2 = alloca ptr, align 8
  store ptr %0, ptr %2, align 8, !tbaa !58
  %3 = load ptr, ptr %2, align 8, !tbaa !58
  %4 = call noundef i64 @_ZN11duckdb_zstdL24ZSTDMT_sizeof_bufferPoolEPNS_19ZSTDMT_bufferPool_sE(ptr noundef %3)
  ret i64 %4
}

; Function Attrs: mustprogress uwtable
define internal noundef i64 @_ZN11duckdb_zstdL22ZSTDMT_sizeof_CCtxPoolEPNS_15ZSTDMT_CCtxPoolE(ptr noundef %0) #1 {
  %2 = alloca ptr, align 8
  %3 = alloca i32, align 4
  %4 = alloca i64, align 8
  %5 = alloca i64, align 8
  %6 = alloca i64, align 8
  %7 = alloca i32, align 4
  store ptr %0, ptr %2, align 8, !tbaa !42
  call void @llvm.lifetime.start.p0(i64 4, ptr %3) #12
  %8 = load ptr, ptr %2, align 8, !tbaa !42
  %9 = getelementptr inbounds nuw %"struct.duckdb_zstd::ZSTDMT_CCtxPool", ptr %8, i32 0, i32 1
  %10 = load i32, ptr %9, align 4, !tbaa !68
  store i32 %10, ptr %3, align 4, !tbaa !3
  call void @llvm.lifetime.start.p0(i64 8, ptr %4) #12
  store i64 48, ptr %4, align 8, !tbaa !52
  call void @llvm.lifetime.start.p0(i64 8, ptr %5) #12
  %11 = load ptr, ptr %2, align 8, !tbaa !42
  %12 = getelementptr inbounds nuw %"struct.duckdb_zstd::ZSTDMT_CCtxPool", ptr %11, i32 0, i32 1
  %13 = load i32, ptr %12, align 4, !tbaa !68
  %14 = sext i32 %13 to i64
  %15 = mul i64 %14, 8
  store i64 %15, ptr %5, align 8, !tbaa !52
  call void @llvm.lifetime.start.p0(i64 8, ptr %6) #12
  store i64 0, ptr %6, align 8, !tbaa !52
  call void @llvm.lifetime.start.p0(i64 4, ptr %7) #12
  store i32 0, ptr %7, align 4, !tbaa !3
  br label %16

16:                                               ; preds = %31, %1
  %17 = load i32, ptr %7, align 4, !tbaa !3
  %18 = load i32, ptr %3, align 4, !tbaa !3
  %19 = icmp ult i32 %17, %18
  br i1 %19, label %20, label %34

20:                                               ; preds = %16
  %21 = load ptr, ptr %2, align 8, !tbaa !42
  %22 = getelementptr inbounds nuw %"struct.duckdb_zstd::ZSTDMT_CCtxPool", ptr %21, i32 0, i32 4
  %23 = load ptr, ptr %22, align 8, !tbaa !65
  %24 = load i32, ptr %7, align 4, !tbaa !3
  %25 = zext i32 %24 to i64
  %26 = getelementptr inbounds nuw ptr, ptr %23, i64 %25
  %27 = load ptr, ptr %26, align 8, !tbaa !69
  %28 = call noundef i64 @_ZN11duckdb_zstd16ZSTD_sizeof_CCtxEPKNS_11ZSTD_CCtx_sE(ptr noundef %27)
  %29 = load i64, ptr %6, align 8, !tbaa !52
  %30 = add i64 %29, %28
  store i64 %30, ptr %6, align 8, !tbaa !52
  br label %31

31:                                               ; preds = %20
  %32 = load i32, ptr %7, align 4, !tbaa !3
  %33 = add i32 %32, 1
  store i32 %33, ptr %7, align 4, !tbaa !3
  br label %16, !llvm.loop !79

34:                                               ; preds = %16
  %35 = load i64, ptr %5, align 8, !tbaa !52
  %36 = add i64 48, %35
  %37 = load i64, ptr %6, align 8, !tbaa !52
  %38 = add i64 %36, %37
  call void @llvm.lifetime.end.p0(i64 4, ptr %7) #12
  call void @llvm.lifetime.end.p0(i64 8, ptr %6) #12
  call void @llvm.lifetime.end.p0(i64 8, ptr %5) #12
  call void @llvm.lifetime.end.p0(i64 8, ptr %4) #12
  call void @llvm.lifetime.end.p0(i64 4, ptr %3) #12
  ret i64 %38
}

; Function Attrs: mustprogress nounwind uwtable
define internal noundef i64 @_ZN11duckdb_zstdL24ZSTDMT_sizeof_bufferPoolEPNS_19ZSTDMT_bufferPool_sE(ptr noundef %0) #0 {
  %2 = alloca ptr, align 8
  %3 = alloca i64, align 8
  %4 = alloca i64, align 8
  %5 = alloca i32, align 4
  %6 = alloca i64, align 8
  store ptr %0, ptr %2, align 8, !tbaa !58
  call void @llvm.lifetime.start.p0(i64 8, ptr %3) #12
  store i64 56, ptr %3, align 8, !tbaa !52
  call void @llvm.lifetime.start.p0(i64 8, ptr %4) #12
  %7 = load ptr, ptr %2, align 8, !tbaa !58
  %8 = getelementptr inbounds nuw %"struct.duckdb_zstd::ZSTDMT_bufferPool_s", ptr %7, i32 0, i32 2
  %9 = load i32, ptr %8, align 8, !tbaa !62
  %10 = zext i32 %9 to i64
  %11 = mul i64 %10, 16
  store i64 %11, ptr %4, align 8, !tbaa !52
  call void @llvm.lifetime.start.p0(i64 4, ptr %5) #12
  call void @llvm.lifetime.start.p0(i64 8, ptr %6) #12
  store i64 0, ptr %6, align 8, !tbaa !52
  store i32 0, ptr %5, align 4, !tbaa !3
  br label %12

12:                                               ; preds = %29, %1
  %13 = load i32, ptr %5, align 4, !tbaa !3
  %14 = load ptr, ptr %2, align 8, !tbaa !58
  %15 = getelementptr inbounds nuw %"struct.duckdb_zstd::ZSTDMT_bufferPool_s", ptr %14, i32 0, i32 2
  %16 = load i32, ptr %15, align 8, !tbaa !62
  %17 = icmp ult i32 %13, %16
  br i1 %17, label %18, label %32

18:                                               ; preds = %12
  %19 = load ptr, ptr %2, align 8, !tbaa !58
  %20 = getelementptr inbounds nuw %"struct.duckdb_zstd::ZSTDMT_bufferPool_s", ptr %19, i32 0, i32 5
  %21 = load ptr, ptr %20, align 8, !tbaa !59
  %22 = load i32, ptr %5, align 4, !tbaa !3
  %23 = zext i32 %22 to i64
  %24 = getelementptr inbounds nuw %"struct.duckdb_zstd::buffer_s", ptr %21, i64 %23
  %25 = getelementptr inbounds nuw %"struct.duckdb_zstd::buffer_s", ptr %24, i32 0, i32 1
  %26 = load i64, ptr %25, align 8, !tbaa !77
  %27 = load i64, ptr %6, align 8, !tbaa !52
  %28 = add i64 %27, %26
  store i64 %28, ptr %6, align 8, !tbaa !52
  br label %29

29:                                               ; preds = %18
  %30 = load i32, ptr %5, align 4, !tbaa !3
  %31 = add i32 %30, 1
  store i32 %31, ptr %5, align 4, !tbaa !3
  br label %12, !llvm.loop !78

32:                                               ; preds = %12
  %33 = load i64, ptr %4, align 8, !tbaa !52
  %34 = add i64 56, %33
  %35 = load i64, ptr %6, align 8, !tbaa !52
  %36 = add i64 %34, %35
  call void @llvm.lifetime.end.p0(i64 8, ptr %6) #12
  call void @llvm.lifetime.end.p0(i64 4, ptr %5) #12
  call void @llvm.lifetime.end.p0(i64 8, ptr %4) #12
  call void @llvm.lifetime.end.p0(i64 8, ptr %3) #12
  ret i64 %36
}

; Function Attrs: mustprogress uwtable
define noundef i64 @_ZN11duckdb_zstd18ZSTDMT_sizeof_CCtxEPNS_13ZSTDMT_CCtx_sE(ptr noundef %0) #1 {
  %2 = alloca i64, align 8
  %3 = alloca ptr, align 8
  store ptr %0, ptr %3, align 8, !tbaa !10
  %4 = load ptr, ptr %3, align 8, !tbaa !10
  %5 = icmp eq ptr %4, null
  br i1 %5, label %6, label %7

6:                                                ; preds = %1
  store i64 0, ptr %2, align 8
  br label %45

7:                                                ; preds = %1
  %8 = load ptr, ptr %3, align 8, !tbaa !10
  %9 = getelementptr inbounds nuw %"struct.duckdb_zstd::ZSTDMT_CCtx_s", ptr %8, i32 0, i32 0
  %10 = load ptr, ptr %9, align 8, !tbaa !12
  %11 = call noundef i64 @_ZN11duckdb_zstd11POOL_sizeofEPKNS_10POOL_ctx_sE(ptr noundef %10)
  %12 = add i64 2944, %11
  %13 = load ptr, ptr %3, align 8, !tbaa !10
  %14 = getelementptr inbounds nuw %"struct.duckdb_zstd::ZSTDMT_CCtx_s", ptr %13, i32 0, i32 2
  %15 = load ptr, ptr %14, align 8, !tbaa !43
  %16 = call noundef i64 @_ZN11duckdb_zstdL24ZSTDMT_sizeof_bufferPoolEPNS_19ZSTDMT_bufferPool_sE(ptr noundef %15)
  %17 = add i64 %12, %16
  %18 = load ptr, ptr %3, align 8, !tbaa !10
  %19 = getelementptr inbounds nuw %"struct.duckdb_zstd::ZSTDMT_CCtx_s", ptr %18, i32 0, i32 13
  %20 = load i32, ptr %19, align 8, !tbaa !40
  %21 = add i32 %20, 1
  %22 = zext i32 %21 to i64
  %23 = mul i64 %22, 368
  %24 = add i64 %17, %23
  %25 = load ptr, ptr %3, align 8, !tbaa !10
  %26 = getelementptr inbounds nuw %"struct.duckdb_zstd::ZSTDMT_CCtx_s", ptr %25, i32 0, i32 3
  %27 = load ptr, ptr %26, align 8, !tbaa !44
  %28 = call noundef i64 @_ZN11duckdb_zstdL22ZSTDMT_sizeof_CCtxPoolEPNS_15ZSTDMT_CCtxPoolE(ptr noundef %27)
  %29 = add i64 %24, %28
  %30 = load ptr, ptr %3, align 8, !tbaa !10
  %31 = getelementptr inbounds nuw %"struct.duckdb_zstd::ZSTDMT_CCtx_s", ptr %30, i32 0, i32 4
  %32 = load ptr, ptr %31, align 8, !tbaa !45
  %33 = call noundef i64 @_ZN11duckdb_zstdL21ZSTDMT_sizeof_seqPoolEPNS_19ZSTDMT_bufferPool_sE(ptr noundef %32)
  %34 = add i64 %29, %33
  %35 = load ptr, ptr %3, align 8, !tbaa !10
  %36 = getelementptr inbounds nuw %"struct.duckdb_zstd::ZSTDMT_CCtx_s", ptr %35, i32 0, i32 22
  %37 = load ptr, ptr %36, align 8, !tbaa !46
  %38 = call noundef i64 @_ZN11duckdb_zstd17ZSTD_sizeof_CDictEPKNS_12ZSTD_CDict_sE(ptr noundef %37)
  %39 = add i64 %34, %38
  %40 = load ptr, ptr %3, align 8, !tbaa !10
  %41 = getelementptr inbounds nuw %"struct.duckdb_zstd::ZSTDMT_CCtx_s", ptr %40, i32 0, i32 10
  %42 = getelementptr inbounds nuw %"struct.duckdb_zstd::roundBuff_t", ptr %41, i32 0, i32 1
  %43 = load i64, ptr %42, align 8, !tbaa !76
  %44 = add i64 %39, %43
  store i64 %44, ptr %2, align 8
  br label %45

45:                                               ; preds = %7, %6
  %46 = load i64, ptr %2, align 8
  ret i64 %46
}