; Function Attrs: mustprogress uwtable
define noundef i64 @_ZN11duckdb_zstd18ZSTDMT_sizeof_CCtxEPNS_13ZSTDMT_CCtx_sE(ptr noundef readonly captures(address_is_null) %0) local_unnamed_addr #1 {
  %2 = icmp eq ptr %0, null
  br i1 %2, label %63, label %3

3:                                                ; preds = %1
  %4 = load ptr, ptr %0, align 8, !tbaa !3
  %5 = tail call noundef i64 @_ZN11duckdb_zstd11POOL_sizeofEPKNS_10POOL_ctx_sE(ptr noundef %4)
  %6 = getelementptr inbounds nuw i8, ptr %0, i64 16
  %7 = load ptr, ptr %6, align 8, !tbaa !39
  %8 = getelementptr inbounds nuw i8, ptr %7, i64 16
  %9 = load i32, ptr %8, align 8, !tbaa !45
  %.not.i = icmp eq i32 %9, 0
  br i1 %.not.i, label %_ZN11duckdb_zstdL24ZSTDMT_sizeof_bufferPoolEPNS_19ZSTDMT_bufferPool_sE.exit, label %.lr.ph.i

.lr.ph.i:                                         ; preds = %3
  %10 = getelementptr inbounds nuw i8, ptr %7, i64 48
  %11 = load ptr, ptr %10, align 8, !tbaa !46
  %wide.trip.count.i = zext i32 %9 to i64
  br label %12

12:                                               ; preds = %12, %.lr.ph.i
  %indvars.iv.i = phi i64 [ 0, %.lr.ph.i ], [ %indvars.iv.next.i, %12 ]
  %.010.i = phi i64 [ 0, %.lr.ph.i ], [ %15, %12 ]
  %13 = getelementptr inbounds nuw %"struct.duckdb_zstd::buffer_s", ptr %11, i64 %indvars.iv.i, i32 1
  %14 = load i64, ptr %13, align 8, !tbaa !66
  %15 = add i64 %14, %.010.i
  %indvars.iv.next.i = add nuw nsw i64 %indvars.iv.i, 1
  %exitcond.not.i = icmp eq i64 %indvars.iv.next.i, %wide.trip.count.i
  br i1 %exitcond.not.i, label %_ZN11duckdb_zstdL24ZSTDMT_sizeof_bufferPoolEPNS_19ZSTDMT_bufferPool_sE.exit.loopexit, label %12, !llvm.loop !67

_ZN11duckdb_zstdL24ZSTDMT_sizeof_bufferPoolEPNS_19ZSTDMT_bufferPool_sE.exit.loopexit: ; preds = %12
  %16 = shl nuw nsw i64 %wide.trip.count.i, 4
  br label %_ZN11duckdb_zstdL24ZSTDMT_sizeof_bufferPoolEPNS_19ZSTDMT_bufferPool_sE.exit

_ZN11duckdb_zstdL24ZSTDMT_sizeof_bufferPoolEPNS_19ZSTDMT_bufferPool_sE.exit: ; preds = %_ZN11duckdb_zstdL24ZSTDMT_sizeof_bufferPoolEPNS_19ZSTDMT_bufferPool_sE.exit.loopexit, %3
  %.pre-phi.i = phi i64 [ 0, %3 ], [ %16, %_ZN11duckdb_zstdL24ZSTDMT_sizeof_bufferPoolEPNS_19ZSTDMT_bufferPool_sE.exit.loopexit ]
  %.0.lcssa.i = phi i64 [ 0, %3 ], [ %15, %_ZN11duckdb_zstdL24ZSTDMT_sizeof_bufferPoolEPNS_19ZSTDMT_bufferPool_sE.exit.loopexit ]
  %17 = getelementptr inbounds nuw i8, ptr %0, i64 2848
  %18 = load i32, ptr %17, align 8, !tbaa !47
  %19 = add i32 %18, 1
  %20 = zext i32 %19 to i64
  %21 = mul nuw nsw i64 %20, 368
  %22 = getelementptr inbounds nuw i8, ptr %0, i64 24
  %23 = load ptr, ptr %22, align 8, !tbaa !51
  %24 = getelementptr inbounds nuw i8, ptr %23, i64 4
  %25 = load i32, ptr %24, align 4, !tbaa !55
  %.not.i9 = icmp eq i32 %25, 0
  br i1 %.not.i9, label %_ZN11duckdb_zstdL22ZSTDMT_sizeof_CCtxPoolEPNS_15ZSTDMT_CCtxPoolE.exit, label %.lr.ph.i10

.lr.ph.i10:                                       ; preds = %_ZN11duckdb_zstdL24ZSTDMT_sizeof_bufferPoolEPNS_19ZSTDMT_bufferPool_sE.exit
  %26 = getelementptr inbounds nuw i8, ptr %23, i64 40
  %wide.trip.count.i11 = zext i32 %25 to i64
  br label %27

27:                                               ; preds = %27, %.lr.ph.i10
  %indvars.iv.i12 = phi i64 [ 0, %.lr.ph.i10 ], [ %indvars.iv.next.i13, %27 ]
  %.0910.i = phi i64 [ 0, %.lr.ph.i10 ], [ %32, %27 ]
  %28 = load ptr, ptr %26, align 8, !tbaa !52
  %29 = getelementptr inbounds nuw ptr, ptr %28, i64 %indvars.iv.i12
  %30 = load ptr, ptr %29, align 8, !tbaa !56
  %31 = tail call noundef i64 @_ZN11duckdb_zstd16ZSTD_sizeof_CCtxEPKNS_11ZSTD_CCtx_sE(ptr noundef %30)
  %32 = add i64 %31, %.0910.i
  %indvars.iv.next.i13 = add nuw nsw i64 %indvars.iv.i12, 1
  %exitcond.not.i14 = icmp eq i64 %indvars.iv.next.i13, %wide.trip.count.i11
  br i1 %exitcond.not.i14, label %_ZN11duckdb_zstdL22ZSTDMT_sizeof_CCtxPoolEPNS_15ZSTDMT_CCtxPoolE.exit, label %27, !llvm.loop !68

_ZN11duckdb_zstdL22ZSTDMT_sizeof_CCtxPoolEPNS_15ZSTDMT_CCtxPoolE.exit: ; preds = %27, %_ZN11duckdb_zstdL24ZSTDMT_sizeof_bufferPoolEPNS_19ZSTDMT_bufferPool_sE.exit
  %.09.lcssa.i = phi i64 [ 0, %_ZN11duckdb_zstdL24ZSTDMT_sizeof_bufferPoolEPNS_19ZSTDMT_bufferPool_sE.exit ], [ %32, %27 ]
  %33 = sext i32 %25 to i64
  %34 = shl nsw i64 %33, 3
  %35 = getelementptr inbounds nuw i8, ptr %0, i64 32
  %36 = load ptr, ptr %35, align 8, !tbaa !59
  %37 = getelementptr inbounds nuw i8, ptr %36, i64 16
  %38 = load i32, ptr %37, align 8, !tbaa !45
  %.not.i.i = icmp eq i32 %38, 0
  br i1 %.not.i.i, label %_ZN11duckdb_zstdL21ZSTDMT_sizeof_seqPoolEPNS_19ZSTDMT_bufferPool_sE.exit, label %.lr.ph.i.i

.lr.ph.i.i:                                       ; preds = %_ZN11duckdb_zstdL22ZSTDMT_sizeof_CCtxPoolEPNS_15ZSTDMT_CCtxPoolE.exit
  %39 = getelementptr inbounds nuw i8, ptr %36, i64 48
  %40 = load ptr, ptr %39, align 8, !tbaa !46
  %wide.trip.count.i.i = zext i32 %38 to i64
  br label %41

41:                                               ; preds = %41, %.lr.ph.i.i
  %indvars.iv.i.i = phi i64 [ 0, %.lr.ph.i.i ], [ %indvars.iv.next.i.i, %41 ]
  %.010.i.i = phi i64 [ 0, %.lr.ph.i.i ], [ %44, %41 ]
  %42 = getelementptr inbounds nuw %"struct.duckdb_zstd::buffer_s", ptr %40, i64 %indvars.iv.i.i, i32 1
  %43 = load i64, ptr %42, align 8, !tbaa !66
  %44 = add i64 %43, %.010.i.i
  %indvars.iv.next.i.i = add nuw nsw i64 %indvars.iv.i.i, 1
  %exitcond.not.i.i = icmp eq i64 %indvars.iv.next.i.i, %wide.trip.count.i.i
  br i1 %exitcond.not.i.i, label %_ZN11duckdb_zstdL24ZSTDMT_sizeof_bufferPoolEPNS_19ZSTDMT_bufferPool_sE.exit.loopexit.i, label %41, !llvm.loop !67

_ZN11duckdb_zstdL24ZSTDMT_sizeof_bufferPoolEPNS_19ZSTDMT_bufferPool_sE.exit.loopexit.i: ; preds = %41
  %45 = shl nuw nsw i64 %wide.trip.count.i.i, 4
  %46 = add nuw nsw i64 %45, 56
  %47 = add i64 %46, %44
  br label %_ZN11duckdb_zstdL21ZSTDMT_sizeof_seqPoolEPNS_19ZSTDMT_bufferPool_sE.exit

_ZN11duckdb_zstdL21ZSTDMT_sizeof_seqPoolEPNS_19ZSTDMT_bufferPool_sE.exit: ; preds = %_ZN11duckdb_zstdL22ZSTDMT_sizeof_CCtxPoolEPNS_15ZSTDMT_CCtxPoolE.exit, %_ZN11duckdb_zstdL24ZSTDMT_sizeof_bufferPoolEPNS_19ZSTDMT_bufferPool_sE.exit.loopexit.i
  %48 = phi i64 [ 56, %_ZN11duckdb_zstdL22ZSTDMT_sizeof_CCtxPoolEPNS_15ZSTDMT_CCtxPoolE.exit ], [ %47, %_ZN11duckdb_zstdL24ZSTDMT_sizeof_bufferPoolEPNS_19ZSTDMT_bufferPool_sE.exit.loopexit.i ]
  %49 = getelementptr inbounds nuw i8, ptr %0, i64 2920
  %50 = load ptr, ptr %49, align 8, !tbaa !62
  %51 = tail call noundef i64 @_ZN11duckdb_zstd17ZSTD_sizeof_CDictEPKNS_12ZSTD_CDict_sE(ptr noundef %50)
  %52 = getelementptr inbounds nuw i8, ptr %0, i64 328
  %53 = load i64, ptr %52, align 8, !tbaa !69
  %54 = add i64 %5, 3048
  %55 = add i64 %54, %.pre-phi.i
  %56 = add i64 %55, %.0.lcssa.i
  %57 = add i64 %56, %21
  %58 = add i64 %57, %34
  %59 = add i64 %58, %.09.lcssa.i
  %60 = add i64 %59, %48
  %61 = add i64 %60, %51
  %62 = add i64 %61, %53
  br label %63

63:                                               ; preds = %1, %_ZN11duckdb_zstdL21ZSTDMT_sizeof_seqPoolEPNS_19ZSTDMT_bufferPool_sE.exit
  %.0 = phi i64 [ %62, %_ZN11duckdb_zstdL21ZSTDMT_sizeof_seqPoolEPNS_19ZSTDMT_bufferPool_sE.exit ], [ 0, %1 ]
  ret i64 %.0
}